Certificate:
    Data:
        Version: 3 (0x2)
        Serial Number: 3 (0x3)
    Signature Algorithm: sha256WithRSAEncryption
        Issuer: CN=Daniel Fullmer CA
        Validity
            Not Before: Jun  3 16:59:33 2019 GMT
            Not After : May 31 16:59:33 2029 GMT
        Subject: CN=daniel.fullmer.me
        Subject Public Key Info:
            Public Key Algorithm: rsaEncryption
                Public-Key: (2048 bit)
                Modulus:
                    00:ab:e1:8d:54:e0:57:63:ad:5c:ad:dd:90:f1:49:
                    d7:7e:3d:4f:a5:e2:2c:69:a3:c4:4e:83:99:93:a1:
                    6d:43:98:8e:cb:d3:4b:e6:54:8a:20:e9:09:af:85:
                    94:42:0a:0e:1a:4c:e5:89:fb:10:18:b4:ab:6f:7c:
                    1a:9a:57:ec:e9:8d:7f:74:4f:90:6a:04:7b:71:75:
                    5e:a5:43:2b:5f:15:93:84:f6:df:0d:a1:8a:ec:a9:
                    d6:18:b7:8e:a8:8f:24:ff:30:3c:bd:33:cc:94:48:
                    0a:35:48:19:e1:a9:f9:e9:6b:29:d7:20:3d:a4:39:
                    93:b2:cc:f6:38:16:4e:c8:30:5a:a9:52:5e:2a:2c:
                    5d:08:3f:80:6d:f0:bc:30:9a:5a:56:16:ec:63:0f:
                    a2:df:5e:12:88:63:67:10:7c:74:00:b5:cd:5f:7d:
                    87:c0:f7:8f:b0:85:2e:d4:41:68:a1:64:75:7f:24:
                    4f:de:37:2a:1c:46:1a:00:88:f3:54:be:df:28:b6:
                    3f:7a:54:7d:da:e0:d8:63:b9:1d:1c:b4:9b:10:f5:
                    4d:07:1c:de:a8:51:fe:21:a2:dd:fe:34:88:7c:0e:
                    77:47:02:1e:b4:d2:e7:76:1e:cb:d2:c2:12:06:d6:
                    87:31:71:03:b0:6d:81:3a:8b:9c:59:87:83:2e:db:
                    f0:77
                Exponent: 65537 (0x10001)
        X509v3 extensions:
            X509v3 Basic Constraints: 
                CA:FALSE
            X509v3 Subject Alternative Name: 
                DNS:daniel.fullmer.me
            X509v3 Subject Key Identifier: 
                84:3A:9F:E4:E0:14:89:C1:1E:0C:01:CC:D7:9B:08:27:5A:3A:76:85
    Signature Algorithm: sha256WithRSAEncryption
         5e:fc:20:25:f7:d0:5f:d8:d4:86:b4:20:73:b6:b3:21:cf:95:
         08:49:6d:25:60:c4:71:6a:9c:96:26:4c:72:87:dd:00:e4:9a:
         d8:ee:53:70:ca:0a:ca:a3:29:b4:c9:49:c0:ae:ae:8a:ea:19:
         41:33:81:db:e6:06:f3:bd:fc:1f:c7:f3:da:cc:3c:e3:1d:2f:
         32:05:69:f2:84:ae:2a:d4:ed:64:87:4a:ac:d9:fd:db:ad:71:
         36:81:ba:fb:99:48:9b:84:07:f0:24:23:25:3d:16:10:d7:0d:
         f3:a7:92:8c:57:ca:91:c3:79:b0:13:bf:d9:da:57:b6:c4:ec:
         ea:05:e6:30:3c:65:cf:c9:d7:1e:8c:aa:31:ce:8f:3a:98:6b:
         ec:4f:76:dc:7d:e8:b4:68:c8:8e:cf:80:99:15:9a:88:42:ce:
         1b:10:75:81:99:7b:52:63:de:30:cb:00:d6:86:48:42:a2:cb:
         d5:27:c2:0c:5f:a7:53:e5:cf:26:82:b0:5f:ab:53:0d:35:65:
         b2:87:c0:c1:37:0e:f5:99:40:82:83:6c:58:1f:48:4b:0f:a1:
         e2:8b:73:ab:c3:ca:ca:05:44:8f:b5:3b:2e:6d:96:58:79:6d:
         c8:35:ea:5a:0e:dc:d9:e5:f0:72:fd:f5:d0:0e:a1:ca:e7:06:
         40:bb:71:ca
-----BEGIN CERTIFICATE-----
MIIC/TCCAeWgAwIBAgIBAzANBgkqhkiG9w0BAQsFADAcMRowGAYDVQQDDBFEYW5p
ZWwgRnVsbG1lciBDQTAeFw0xOTA2MDMxNjU5MzNaFw0yOTA1MzExNjU5MzNaMBwx
GjAYBgNVBAMMEWRhbmllbC5mdWxsbWVyLm1lMIIBIjANBgkqhkiG9w0BAQEFAAOC
AQ8AMIIBCgKCAQEAq+GNVOBXY61crd2Q8UnXfj1PpeIsaaPEToOZk6FtQ5iOy9NL
5lSKIOkJr4WUQgoOGkzlifsQGLSrb3wamlfs6Y1/dE+QagR7cXVepUMrXxWThPbf
DaGK7KnWGLeOqI8k/zA8vTPMlEgKNUgZ4an56Wsp1yA9pDmTssz2OBZOyDBaqVJe
KixdCD+AbfC8MJpaVhbsYw+i314SiGNnEHx0ALXNX32HwPePsIUu1EFooWR1fyRP
3jcqHEYaAIjzVL7fKLY/elR92uDYY7kdHLSbEPVNBxzeqFH+IaLd/jSIfA53RwIe
tNLndh7L0sISBtaHMXEDsG2BOoucWYeDLtvwdwIDAQABo0owSDAJBgNVHRMEAjAA
MBwGA1UdEQQVMBOCEWRhbmllbC5mdWxsbWVyLm1lMB0GA1UdDgQWBBSEOp/k4BSJ
wR4MAczXmwgnWjp2hTANBgkqhkiG9w0BAQsFAAOCAQEAXvwgJffQX9jUhrQgc7az
Ic+VCEltJWDEcWqcliZMcofdAOSa2O5TcMoKyqMptMlJwK6uiuoZQTOB2+YG8738
H8fz2sw84x0vMgVp8oSuKtTtZIdKrNn9261xNoG6+5lIm4QH8CQjJT0WENcN86eS
jFfKkcN5sBO/2dpXtsTs6gXmMDxlz8nXHoyqMc6POphr7E923H3otGjIjs+AmRWa
iELOGxB1gZl7UmPeMMsA1oZIQqLL1SfCDF+nU+XPJoKwX6tTDTVlsofAwTcO9ZlA
goNsWB9ISw+h4otzq8PKygVEj7U7Lm2WWHltyDXqWg7c2eXwcv310A6hyucGQLtx
yg==
-----END CERTIFICATE-----
