Certificate:
    Data:
        Version: 3 (0x2)
        Serial Number: 2 (0x2)
    Signature Algorithm: sha256WithRSAEncryption
        Issuer: CN=Daniel Fullmer CA
        Validity
            Not Before: Jun  3 16:55:58 2019 GMT
            Not After : May 31 16:55:58 2029 GMT
        Subject: CN=hydra.daniel.fullmer.me
        Subject Public Key Info:
            Public Key Algorithm: rsaEncryption
                Public-Key: (2048 bit)
                Modulus:
                    00:a8:87:4e:0b:07:09:85:fd:35:86:da:af:51:cb:
                    b7:81:07:2b:96:2e:9a:68:4c:68:56:4d:04:f7:8a:
                    85:9f:7b:29:8d:10:44:9c:cd:f2:f7:45:b0:14:12:
                    1b:f6:20:3a:f9:d1:2a:c9:22:7c:bf:e2:1c:59:8d:
                    c8:6f:48:18:48:bf:43:6e:cf:db:1a:18:4a:86:e7:
                    32:fb:be:de:dc:2e:a5:29:e4:ce:2c:e3:b2:1f:86:
                    4d:c3:00:b8:b5:9e:85:8f:89:65:c2:61:25:a0:da:
                    78:a0:fe:70:96:9e:92:24:88:80:de:03:8c:5d:c1:
                    66:03:d1:f9:94:ff:6a:54:60:49:ba:34:64:81:36:
                    82:4c:0e:41:4d:2f:f4:45:53:17:bb:29:d5:68:66:
                    e2:4e:a7:b1:f2:8d:cc:43:88:06:b1:b4:29:69:38:
                    e6:f6:5a:91:34:28:e1:23:bb:51:93:6d:50:55:cc:
                    2b:03:9f:92:77:1e:4e:f8:16:58:5d:4f:87:bd:26:
                    a2:a1:e5:30:a6:dc:d5:e2:c1:40:4e:ae:9b:e1:cd:
                    6a:dc:9c:4f:f4:d4:c1:d6:83:d0:bd:bd:a2:75:ce:
                    96:37:6f:ee:c0:c5:b8:71:f7:da:c7:ed:fc:76:53:
                    35:0e:4c:67:1b:de:6a:89:e2:eb:19:54:61:d1:98:
                    20:c9
                Exponent: 65537 (0x10001)
        X509v3 extensions:
            X509v3 Basic Constraints: 
                CA:FALSE
            X509v3 Subject Alternative Name: 
                DNS:hydra.daniel.fullmer.me
            X509v3 Subject Key Identifier: 
                81:0A:6D:E0:09:E8:E0:66:D0:41:BE:85:B3:7E:39:90:59:F2:7A:A5
    Signature Algorithm: sha256WithRSAEncryption
         6c:da:48:77:a8:f5:9f:42:5e:1e:71:f8:c8:f8:11:59:be:6d:
         78:12:b3:34:aa:63:be:72:33:a5:f8:49:9e:a8:56:09:1a:10:
         02:93:4a:65:04:08:b2:ad:17:a0:74:d4:90:cf:6f:fd:b1:e9:
         7e:cf:ed:c7:48:7a:1b:b9:b2:1c:cd:f6:7b:0d:6b:a9:fa:ef:
         d1:77:8a:e8:e4:a8:78:f1:a1:be:8d:58:bf:3d:82:fc:5d:88:
         a9:c1:c1:dd:68:ce:65:79:af:9d:e7:e0:65:96:80:c6:a5:c0:
         19:29:8c:d5:7d:7d:c4:7a:78:17:d4:ef:1f:31:4e:ee:cb:c8:
         39:e3:b6:91:cf:f2:f1:4b:64:bc:f7:34:99:31:ae:7a:ed:92:
         44:54:db:01:14:3f:cd:1a:79:6a:62:ab:3e:70:6b:94:c5:bb:
         e2:ee:16:f1:86:37:fd:62:20:7b:72:d0:ed:11:a7:d3:2a:31:
         73:8a:af:a6:96:b5:d4:37:96:0e:31:60:65:ef:42:24:b3:08:
         cf:b9:e2:1f:32:b7:28:9b:83:e6:43:05:4f:1c:06:cf:f7:81:
         9f:7e:dd:f0:16:f4:c8:1a:55:90:53:00:06:3d:c3:c5:6e:cf:
         fd:ad:3c:03:c8:b0:ae:fc:ed:5b:14:4b:f8:46:1b:c7:e8:03:
         2e:e5:ba:b2
-----BEGIN CERTIFICATE-----
MIIDCTCCAfGgAwIBAgIBAjANBgkqhkiG9w0BAQsFADAcMRowGAYDVQQDDBFEYW5p
ZWwgRnVsbG1lciBDQTAeFw0xOTA2MDMxNjU1NThaFw0yOTA1MzExNjU1NThaMCIx
IDAeBgNVBAMMF2h5ZHJhLmRhbmllbC5mdWxsbWVyLm1lMIIBIjANBgkqhkiG9w0B
AQEFAAOCAQ8AMIIBCgKCAQEAqIdOCwcJhf01htqvUcu3gQcrli6aaExoVk0E94qF
n3spjRBEnM3y90WwFBIb9iA6+dEqySJ8v+IcWY3Ib0gYSL9Dbs/bGhhKhucy+77e
3C6lKeTOLOOyH4ZNwwC4tZ6Fj4llwmEloNp4oP5wlp6SJIiA3gOMXcFmA9H5lP9q
VGBJujRkgTaCTA5BTS/0RVMXuynVaGbiTqex8o3MQ4gGsbQpaTjm9lqRNCjhI7tR
k21QVcwrA5+Sdx5O+BZYXU+HvSaioeUwptzV4sFATq6b4c1q3JxP9NTB1oPQvb2i
dc6WN2/uwMW4cffax+38dlM1DkxnG95qieLrGVRh0ZggyQIDAQABo1AwTjAJBgNV
HRMEAjAAMCIGA1UdEQQbMBmCF2h5ZHJhLmRhbmllbC5mdWxsbWVyLm1lMB0GA1Ud
DgQWBBSBCm3gCejgZtBBvoWzfjmQWfJ6pTANBgkqhkiG9w0BAQsFAAOCAQEAbNpI
d6j1n0JeHnH4yPgRWb5teBKzNKpjvnIzpfhJnqhWCRoQApNKZQQIsq0XoHTUkM9v
/bHpfs/tx0h6G7myHM32ew1rqfrv0XeK6OSoePGhvo1Yvz2C/F2IqcHB3WjOZXmv
nefgZZaAxqXAGSmM1X19xHp4F9TvHzFO7svIOeO2kc/y8UtkvPc0mTGueu2SRFTb
ARQ/zRp5amKrPnBrlMW74u4W8YY3/WIge3LQ7RGn0yoxc4qvppa11DeWDjFgZe9C
JLMIz7niHzK3KJuD5kMFTxwGz/eBn37d8Bb0yBpVkFMABj3DxW7P/a08A8iwrvzt
WxRL+EYbx+gDLuW6sg==
-----END CERTIFICATE-----
